target datalayout = "e-m:e-p270:32:32-p271:32:32-p272:64:64-i64:64-i128:128-f80:128-n8:16:32:64-S128"
target triple = "x86_64-pc-linux-gnu"

%"class.IndexSet::BitBlock" = type { %union.anon.15 }
%union.anon.15 = type { [4 x i64] }
%class.PhaseIFG = type { %class.Phase, ptr, i8, ptr, i32, ptr, ptr }
%class.Phase = type { i32, ptr }
%class.IndexSet = type { i32, i32, ptr, [16 x ptr], i32, ptr }
%class.LRG = type { double, double, double, ptr, i32, i32, i32, i32, i32, i32, %class.RegMask, i32, i16, i32, i16, i16 }
%class.RegMask = type { %union.anon, i32, i32 }
%union.anon = type { [11 x i64] }

@_ZN8IndexSet12_empty_blockE = external global %"class.IndexSet::BitBlock", align 8

; Function Attrs: mustprogress nounwind uwtable
define linkonce_odr hidden noundef i64 @_Z9mask_bitsll(i64 noundef %0, i64 noundef %1) #1 comdat {
  %3 = alloca i64, align 8
  %4 = alloca i64, align 8
  store i64 %0, ptr %3, align 8
  store i64 %1, ptr %4, align 8
  %5 = load i64, ptr %3, align 8
  %6 = load i64, ptr %4, align 8
  %7 = and i64 %5, %6
  ret i64 %7
}

; Function Attrs: mustprogress nounwind uwtable
define linkonce_odr hidden noundef ptr @_ZN8IndexSet8BitBlock5wordsEv(ptr noundef nonnull align 8 dereferenceable(32) %0) #1 comdat align 2 {
  %2 = alloca ptr, align 8
  store ptr %0, ptr %2, align 8
  %3 = load ptr, ptr %2, align 8
  %4 = getelementptr inbounds %"class.IndexSet::BitBlock", ptr %3, i32 0, i32 0
  %5 = getelementptr inbounds [4 x i64], ptr %4, i64 0, i64 0
  ret ptr %5
}

; Function Attrs: mustprogress nounwind uwtable
define linkonce_odr hidden noundef i32 @_ZN8IndexSet13get_bit_indexEj(i32 noundef %0) #1 comdat align 2 {
  %2 = alloca i32, align 4
  store i32 %0, ptr %2, align 4
  %3 = load i32, ptr %2, align 4
  %4 = zext i32 %3 to i64
  %5 = call noundef i64 @_Z9mask_bitsll(i64 noundef %4, i64 noundef 63)
  %6 = trunc i64 %5 to i32
  ret i32 %6
}

; Function Attrs: mustprogress nounwind uwtable
define linkonce_odr hidden noundef i32 @_ZN8IndexSet14get_word_indexEj(i32 noundef %0) #1 comdat align 2 {
  %2 = alloca i32, align 4
  store i32 %0, ptr %2, align 4
  %3 = load i32, ptr %2, align 4
  %4 = lshr i32 %3, 6
  %5 = zext i32 %4 to i64
  %6 = call noundef i64 @_Z9mask_bitsll(i64 noundef %5, i64 noundef 3)
  %7 = trunc i64 %6 to i32
  ret i32 %7
}

; Function Attrs: mustprogress nounwind uwtable
define linkonce_odr hidden noundef i32 @_ZN8IndexSet15get_block_indexEj(i32 noundef %0) #1 comdat align 2 {
  %2 = alloca i32, align 4
  store i32 %0, ptr %2, align 4
  %3 = load i32, ptr %2, align 4
  %4 = lshr i32 %3, 8
  ret i32 %4
}

; Function Attrs: mustprogress nounwind uwtable
define linkonce_odr hidden noundef zeroext i1 @_ZN8IndexSet8BitBlock6insertEj(ptr noundef nonnull align 8 dereferenceable(32) %0, i32 noundef %1) #1 comdat align 2 {
  %3 = alloca ptr, align 8
  %4 = alloca i32, align 4
  %5 = alloca i32, align 4
  %6 = alloca i64, align 8
  %7 = alloca i64, align 8
  %8 = alloca i64, align 8
  store ptr %0, ptr %3, align 8
  store i32 %1, ptr %4, align 4
  %9 = load ptr, ptr %3, align 8
  %10 = load i32, ptr %4, align 4
  %11 = call noundef i32 @_ZN8IndexSet14get_word_indexEj(i32 noundef %10)
  store i32 %11, ptr %5, align 4
  %12 = load i32, ptr %4, align 4
  %13 = call noundef i32 @_ZN8IndexSet13get_bit_indexEj(i32 noundef %12)
  %14 = zext i32 %13 to i64
  store i64 %14, ptr %6, align 8
  %15 = load i64, ptr %6, align 8
  %16 = shl i64 1, %15
  store i64 %16, ptr %7, align 8
  %17 = call noundef ptr @_ZN8IndexSet8BitBlock5wordsEv(ptr noundef nonnull align 8 dereferenceable(32) %9)
  %18 = load i32, ptr %5, align 4
  %19 = zext i32 %18 to i64
  %20 = getelementptr inbounds i64, ptr %17, i64 %19
  %21 = load i64, ptr %20, align 8
  store i64 %21, ptr %8, align 8
  %22 = load i64, ptr %8, align 8
  %23 = load i64, ptr %7, align 8
  %24 = or i64 %22, %23
  %25 = call noundef ptr @_ZN8IndexSet8BitBlock5wordsEv(ptr noundef nonnull align 8 dereferenceable(32) %9)
  %26 = load i32, ptr %5, align 4
  %27 = zext i32 %26 to i64
  %28 = getelementptr inbounds i64, ptr %25, i64 %27
  store i64 %24, ptr %28, align 8
  %29 = load i64, ptr %8, align 8
  %30 = load i64, ptr %7, align 8
  %31 = and i64 %29, %30
  %32 = icmp ne i64 %31, 0
  ret i1 %32
}

; Function Attrs: mustprogress nounwind uwtable
define linkonce_odr hidden noundef ptr @_ZNK8IndexSet20get_block_containingEj(ptr noundef nonnull align 8 dereferenceable(160) %0, i32 noundef %1) #1 comdat align 2 {
  %3 = alloca ptr, align 8
  %4 = alloca i32, align 4
  store ptr %0, ptr %3, align 8
  store i32 %1, ptr %4, align 4
  %5 = load ptr, ptr %3, align 8
  %6 = getelementptr inbounds %class.IndexSet, ptr %5, i32 0, i32 2
  %7 = load ptr, ptr %6, align 8
  %8 = load i32, ptr %4, align 4
  %9 = call noundef i32 @_ZN8IndexSet15get_block_indexEj(i32 noundef %8)
  %10 = zext i32 %9 to i64
  %11 = getelementptr inbounds ptr, ptr %7, i64 %10
  %12 = load ptr, ptr %11, align 8
  ret ptr %12
}

; Function Attrs: mustprogress nounwind uwtable
define linkonce_odr hidden noundef zeroext i1 @_ZN8IndexSet6insertEj(ptr noundef nonnull align 8 dereferenceable(160) %0, i32 noundef %1) #1 comdat align 2 {
  %3 = alloca i1, align 1
  %4 = alloca ptr, align 8
  %5 = alloca i32, align 4
  %6 = alloca ptr, align 8
  %7 = alloca i8, align 1
  store ptr %0, ptr %4, align 8
  store i32 %1, ptr %5, align 4
  %8 = load ptr, ptr %4, align 8
  %9 = load i32, ptr %5, align 4
  %10 = icmp eq i32 %9, 0
  br i1 %10, label %11, label %12

11:                                               ; preds = %2
  store i1 false, ptr %3, align 1
  br label %35

12:                                               ; preds = %2
  %13 = load i32, ptr %5, align 4
  %14 = call noundef ptr @_ZNK8IndexSet20get_block_containingEj(ptr noundef nonnull align 8 dereferenceable(160) %8, i32 noundef %13)
  store ptr %14, ptr %6, align 8
  %15 = load ptr, ptr %6, align 8
  %16 = icmp eq ptr %15, @_ZN8IndexSet12_empty_blockE
  br i1 %16, label %17, label %20

17:                                               ; preds = %12
  %18 = load i32, ptr %5, align 4
  %19 = call noundef ptr @_ZN8IndexSet22alloc_block_containingEj(ptr noundef nonnull align 8 dereferenceable(160) %8, i32 noundef %18)
  store ptr %19, ptr %6, align 8
  br label %20

20:                                               ; preds = %17, %12
  %21 = load ptr, ptr %6, align 8
  %22 = load i32, ptr %5, align 4
  %23 = call noundef zeroext i1 @_ZN8IndexSet8BitBlock6insertEj(ptr noundef nonnull align 8 dereferenceable(32) %21, i32 noundef %22)
  %24 = zext i1 %23 to i8
  store i8 %24, ptr %7, align 1
  %25 = load i8, ptr %7, align 1
  %26 = trunc i8 %25 to i1
  br i1 %26, label %31, label %27

27:                                               ; preds = %20
  %28 = getelementptr inbounds %class.IndexSet, ptr %8, i32 0, i32 0
  %29 = load i32, ptr %28, align 8
  %30 = add i32 %29, 1
  store i32 %30, ptr %28, align 8
  br label %31

31:                                               ; preds = %27, %20
  %32 = load i8, ptr %7, align 1
  %33 = trunc i8 %32 to i1
  %34 = xor i1 %33, true
  store i1 %34, ptr %3, align 1
  br label %35

35:                                               ; preds = %31, %11
  %36 = load i1, ptr %3, align 1
  ret i1 %36
}

; Function Attrs: mustprogress nounwind uwtable
define linkonce_odr hidden void @_ZN3LRG14invalid_degreeEv(ptr noundef nonnull align 8 dereferenceable(168) %0) #1 comdat align 2 {
  %2 = alloca ptr, align 8
  store ptr %0, ptr %2, align 8
  ret void
}

; Function Attrs: mustprogress nounwind uwtable
define linkonce_odr hidden noundef nonnull align 8 dereferenceable(168) ptr @_ZNK8PhaseIFG4lrgsEj(ptr noundef nonnull align 8 dereferenceable(64) %0, i32 noundef %1) #1 comdat align 2 {
  %3 = alloca ptr, align 8
  %4 = alloca i32, align 4
  store ptr %0, ptr %3, align 8
  store i32 %1, ptr %4, align 4
  %5 = load ptr, ptr %3, align 8
  %6 = getelementptr inbounds %class.PhaseIFG, ptr %5, i32 0, i32 3
  %7 = load ptr, ptr %6, align 8
  %8 = load i32, ptr %4, align 4
  %9 = zext i32 %8 to i64
  %10 = getelementptr inbounds %class.LRG, ptr %7, i64 %9
  ret ptr %10
}

; Function Attrs: mustprogress nounwind uwtable
define hidden noundef i32 @_ZN8PhaseIFG8add_edgeEjj(ptr noundef nonnull align 8 dereferenceable(64) %0, i32 noundef %1, i32 noundef %2) #1 align 2 {
  %4 = alloca ptr, align 8
  %5 = alloca i32, align 4
  %6 = alloca i32, align 4
  %7 = alloca i32, align 4
  store ptr %0, ptr %4, align 8
  store i32 %1, ptr %5, align 4
  store i32 %2, ptr %6, align 4
  %8 = load ptr, ptr %4, align 8
  %9 = load i32, ptr %5, align 4
  %10 = call noundef nonnull align 8 dereferenceable(168) ptr @_ZNK8PhaseIFG4lrgsEj(ptr noundef nonnull align 8 dereferenceable(64) %8, i32 noundef %9)
  call void @_ZN3LRG14invalid_degreeEv(ptr noundef nonnull align 8 dereferenceable(168) %10)
  %11 = load i32, ptr %6, align 4
  %12 = call noundef nonnull align 8 dereferenceable(168) ptr @_ZNK8PhaseIFG4lrgsEj(ptr noundef nonnull align 8 dereferenceable(64) %8, i32 noundef %11)
  call void @_ZN3LRG14invalid_degreeEv(ptr noundef nonnull align 8 dereferenceable(168) %12)
  %13 = load i32, ptr %5, align 4
  %14 = load i32, ptr %6, align 4
  %15 = icmp ult i32 %13, %14
  br i1 %15, label %16, label %20

16:                                               ; preds = %3
  %17 = load i32, ptr %5, align 4
  store i32 %17, ptr %7, align 4
  %18 = load i32, ptr %6, align 4
  store i32 %18, ptr %5, align 4
  %19 = load i32, ptr %7, align 4
  store i32 %19, ptr %6, align 4
  br label %20

20:                                               ; preds = %16, %3
  %21 = getelementptr inbounds %class.PhaseIFG, ptr %8, i32 0, i32 1
  %22 = load ptr, ptr %21, align 8
  %23 = load i32, ptr %5, align 4
  %24 = zext i32 %23 to i64
  %25 = getelementptr inbounds %class.IndexSet, ptr %22, i64 %24
  %26 = load i32, ptr %6, align 4
  %27 = call noundef zeroext i1 @_ZN8IndexSet6insertEj(ptr noundef nonnull align 8 dereferenceable(160) %25, i32 noundef %26)
  %28 = zext i1 %27 to i32
  ret i32 %28
}