; Function Attrs: mustprogress nounwind uwtable
define hidden noundef range(i32 0, 2) i32 @_ZN8PhaseIFG8add_edgeEjj(ptr nocapture noundef nonnull readonly align 8 dereferenceable(64) %0, i32 noundef %1, i32 noundef %2) local_unnamed_addr #0 align 2 {
  %spec.select = tail call i32 @llvm.umin.i32(i32 %1, i32 %2)
  %spec.select13 = tail call i32 @llvm.umax.i32(i32 %1, i32 %2)
  %4 = getelementptr inbounds i8, ptr %0, i64 16
  %5 = load ptr, ptr %4, align 8
  %6 = zext i32 %spec.select13 to i64
  %7 = getelementptr inbounds %class.IndexSet, ptr %5, i64 %6
  %8 = icmp eq i32 %spec.select, 0
  br i1 %8, label %_ZN8IndexSet6insertEj.exit, label %9

9:                                                ; preds = %3
  %10 = getelementptr inbounds i8, ptr %7, i64 8
  %11 = load ptr, ptr %10, align 8
  %12 = lshr i32 %spec.select, 8
  %13 = zext nneg i32 %12 to i64
  %14 = getelementptr inbounds ptr, ptr %11, i64 %13
  %15 = load ptr, ptr %14, align 8
  %16 = icmp eq ptr %15, @_ZN8IndexSet12_empty_blockE
  br i1 %16, label %17, label %19

17:                                               ; preds = %9
  %18 = tail call noundef ptr @_ZN8IndexSet22alloc_block_containingEj(ptr noundef nonnull align 8 dereferenceable(160) %7, i32 noundef %spec.select) #13
  br label %19

19:                                               ; preds = %17, %9
  %.09.i = phi ptr [ %18, %17 ], [ %15, %9 ]
  %20 = lshr i32 %spec.select, 6
  %21 = and i32 %20, 3
  %22 = and i32 %spec.select, 63
  %23 = zext nneg i32 %22 to i64
  %24 = shl nuw i64 1, %23
  %25 = zext nneg i32 %21 to i64
  %26 = getelementptr inbounds i64, ptr %.09.i, i64 %25
  %27 = load i64, ptr %26, align 8
  %28 = or i64 %27, %24
  store i64 %28, ptr %26, align 8
  %29 = and i64 %27, %24
  %.not.i = icmp eq i64 %29, 0
  br i1 %.not.i, label %30, label %_ZN8IndexSet6insertEj.exit

30:                                               ; preds = %19
  %31 = load i32, ptr %7, align 8
  %32 = add i32 %31, 1
  store i32 %32, ptr %7, align 8
  br label %_ZN8IndexSet6insertEj.exit

_ZN8IndexSet6insertEj.exit:                       ; preds = %3, %19, %30
  %.0.i = phi i32 [ 0, %3 ], [ 1, %30 ], [ 0, %19 ]
  ret i32 %.0.i
}